; ModuleID = '31/25.c'
source_filename = "31/25.c"
target datalayout = "e-m:e-p270:32:32-p271:32:32-p272:64:64-i64:64-f80:128-n8:16:32:64-S128"
target triple = "x86_64-pc-linux-gnu"

%struct.student = type { [50 x i8], [50 x i8], i8, i32, [50 x i8], [50 x i8], %struct.student* }

@n = common dso_local global i32 0, align 4
@.str = private unnamed_addr constant [46 x i8] c"\0ACann't create it, try it again in a moment!\0A\00", align 1
@.str.1 = private unnamed_addr constant [18 x i8] c"%s %s %c %d %s %s\00", align 1
@.str.2 = private unnamed_addr constant [3 x i8] c"%s\00", align 1
@.str.3 = private unnamed_addr constant [4 x i8] c"end\00", align 1
@.str.4 = private unnamed_addr constant [15 x i8] c"%s %c %d %s %s\00", align 1
@.str.5 = private unnamed_addr constant [19 x i8] c"%s %s %c %d %s %s\0A\00", align 1

; Function Attrs: noinline nounwind uwtable
define dso_local %struct.student* @Create() #0 {
  %1 = alloca %struct.student*, align 8
  %2 = alloca %struct.student*, align 8
  %3 = alloca %struct.student*, align 8
  %4 = alloca %struct.student*, align 8
  %5 = alloca i32, align 4
  store %struct.student* null, %struct.student** %3, align 8
  store %struct.student* null, %struct.student** %4, align 8
  store i32 0, i32* @n, align 4
  %6 = call noalias i8* @malloc(i64 100) #4
  %7 = bitcast i8* %6 to %struct.student*
  store %struct.student* %7, %struct.student** %3, align 8
  %8 = load %struct.student*, %struct.student** %3, align 8
  store %struct.student* %8, %struct.student** %4, align 8
  %9 = load %struct.student*, %struct.student** %3, align 8
  %10 = icmp eq %struct.student* %9, null
  br i1 %10, label %11, label %13

11:                                               ; preds = %0
  %12 = call i32 (i8*, ...) @printf(i8* getelementptr inbounds ([46 x i8], [46 x i8]* @.str, i64 0, i64 0))
  store %struct.student* null, %struct.student** %1, align 8
  br label %83

13:                                               ; preds = %0
  store %struct.student* null, %struct.student** %2, align 8
  %14 = load %struct.student*, %struct.student** %3, align 8
  %15 = getelementptr inbounds %struct.student, %struct.student* %14, i32 0, i32 0
  %16 = getelementptr inbounds [50 x i8], [50 x i8]* %15, i64 0, i64 0
  %17 = load %struct.student*, %struct.student** %3, align 8
  %18 = getelementptr inbounds %struct.student, %struct.student* %17, i32 0, i32 1
  %19 = getelementptr inbounds [50 x i8], [50 x i8]* %18, i64 0, i64 0
  %20 = load %struct.student*, %struct.student** %3, align 8
  %21 = getelementptr inbounds %struct.student, %struct.student* %20, i32 0, i32 2
  %22 = load %struct.student*, %struct.student** %3, align 8
  %23 = getelementptr inbounds %struct.student, %struct.student* %22, i32 0, i32 3
  %24 = load %struct.student*, %struct.student** %3, align 8
  %25 = getelementptr inbounds %struct.student, %struct.student* %24, i32 0, i32 4
  %26 = getelementptr inbounds [50 x i8], [50 x i8]* %25, i64 0, i64 0
  %27 = load %struct.student*, %struct.student** %3, align 8
  %28 = getelementptr inbounds %struct.student, %struct.student* %27, i32 0, i32 5
  %29 = getelementptr inbounds [50 x i8], [50 x i8]* %28, i64 0, i64 0
  %30 = call i32 (i8*, ...) @__isoc99_scanf(i8* getelementptr inbounds ([18 x i8], [18 x i8]* @.str.1, i64 0, i64 0), i8* %16, i8* %19, i8* %21, i32* %23, i8* %26, i8* %29)
  br label %31

31:                                               ; preds = %13
  store i32 0, i32* %5, align 4
  br label %32

32:                                               ; preds = %75, %31
  %33 = load i32, i32* @n, align 4
  %34 = add nsw i32 %33, 1
  store i32 %34, i32* @n, align 4
  %35 = load i32, i32* @n, align 4
  %36 = icmp eq i32 %35, 1
  br i1 %36, label %37, label %41

37:                                               ; preds = %32
  %38 = load %struct.student*, %struct.student** %3, align 8
  %39 = getelementptr inbounds %struct.student, %struct.student* %38, i32 0, i32 6
  store %struct.student* null, %struct.student** %39, align 8
  %40 = load %struct.student*, %struct.student** %4, align 8
  store %struct.student* %40, %struct.student** %2, align 8
  br label %45

41:                                               ; preds = %32
  %42 = load %struct.student*, %struct.student** %4, align 8
  %43 = load %struct.student*, %struct.student** %3, align 8
  %44 = getelementptr inbounds %struct.student, %struct.student* %43, i32 0, i32 6
  store %struct.student* %42, %struct.student** %44, align 8
  br label %45

45:                                               ; preds = %41, %37
  %46 = load %struct.student*, %struct.student** %3, align 8
  store %struct.student* %46, %struct.student** %4, align 8
  %47 = call noalias i8* @malloc(i64 100) #4
  %48 = bitcast i8* %47 to %struct.student*
  store %struct.student* %48, %struct.student** %3, align 8
  %49 = load %struct.student*, %struct.student** %3, align 8
  %50 = getelementptr inbounds %struct.student, %struct.student* %49, i32 0, i32 0
  %51 = getelementptr inbounds [50 x i8], [50 x i8]* %50, i64 0, i64 0
  %52 = call i32 (i8*, ...) @__isoc99_scanf(i8* getelementptr inbounds ([3 x i8], [3 x i8]* @.str.2, i64 0, i64 0), i8* %51)
  %53 = load %struct.student*, %struct.student** %3, align 8
  %54 = getelementptr inbounds %struct.student, %struct.student* %53, i32 0, i32 0
  %55 = getelementptr inbounds [50 x i8], [50 x i8]* %54, i64 0, i64 0
  %56 = call i32 @strcmp(i8* %55, i8* getelementptr inbounds ([4 x i8], [4 x i8]* @.str.3, i64 0, i64 0)) #5
  %57 = icmp eq i32 %56, 0
  br i1 %57, label %58, label %60

58:                                               ; preds = %45
  %59 = load %struct.student*, %struct.student** %4, align 8
  store %struct.student* %59, %struct.student** %2, align 8
  br label %78

60:                                               ; preds = %45
  %61 = load %struct.student*, %struct.student** %3, align 8
  %62 = getelementptr inbounds %struct.student, %struct.student* %61, i32 0, i32 1
  %63 = getelementptr inbounds [50 x i8], [50 x i8]* %62, i64 0, i64 0
  %64 = load %struct.student*, %struct.student** %3, align 8
  %65 = getelementptr inbounds %struct.student, %struct.student* %64, i32 0, i32 2
  %66 = load %struct.student*, %struct.student** %3, align 8
  %67 = getelementptr inbounds %struct.student, %struct.student* %66, i32 0, i32 3
  %68 = load %struct.student*, %struct.student** %3, align 8
  %69 = getelementptr inbounds %struct.student, %struct.student* %68, i32 0, i32 4
  %70 = getelementptr inbounds [50 x i8], [50 x i8]* %69, i64 0, i64 0
  %71 = load %struct.student*, %struct.student** %3, align 8
  %72 = getelementptr inbounds %struct.student, %struct.student* %71, i32 0, i32 5
  %73 = getelementptr inbounds [50 x i8], [50 x i8]* %72, i64 0, i64 0
  %74 = call i32 (i8*, ...) @__isoc99_scanf(i8* getelementptr inbounds ([15 x i8], [15 x i8]* @.str.4, i64 0, i64 0), i8* %63, i8* %65, i32* %67, i8* %70, i8* %73)
  br label %75

75:                                               ; preds = %60
  %76 = load i32, i32* %5, align 4
  %77 = add nsw i32 %76, 1
  store i32 %77, i32* %5, align 4
  br label %32

78:                                               ; preds = %58
  %79 = load %struct.student*, %struct.student** %4, align 8
  store %struct.student* %79, %struct.student** %2, align 8
  %80 = load %struct.student*, %struct.student** %3, align 8
  %81 = bitcast %struct.student* %80 to i8*
  call void @free(i8* %81) #4
  store %struct.student* null, %struct.student** %3, align 8
  %82 = load %struct.student*, %struct.student** %2, align 8
  store %struct.student* %82, %struct.student** %1, align 8
  br label %83

83:                                               ; preds = %78, %11
  %84 = load %struct.student*, %struct.student** %1, align 8
  ret %struct.student* %84
}

; Function Attrs: nounwind
declare dso_local noalias i8* @malloc(i64) #1

declare dso_local i32 @printf(i8*, ...) #2

declare dso_local i32 @__isoc99_scanf(i8*, ...) #2

; Function Attrs: nounwind readonly
declare dso_local i32 @strcmp(i8*, i8*) #3

; Function Attrs: nounwind
declare dso_local void @free(i8*) #1

; Function Attrs: noinline nounwind uwtable
define dso_local void @Print(%struct.student* %0) #0 {
  %2 = alloca %struct.student*, align 8
  %3 = alloca %struct.student*, align 8
  store %struct.student* %0, %struct.student** %2, align 8
  %4 = load %struct.student*, %struct.student** %2, align 8
  store %struct.student* %4, %struct.student** %3, align 8
  %5 = load %struct.student*, %struct.student** %2, align 8
  %6 = icmp ne %struct.student* %5, null
  br i1 %6, label %7, label %36

7:                                                ; preds = %1
  br label %8

8:                                                ; preds = %32, %7
  %9 = load %struct.student*, %struct.student** %3, align 8
  %10 = getelementptr inbounds %struct.student, %struct.student* %9, i32 0, i32 0
  %11 = getelementptr inbounds [50 x i8], [50 x i8]* %10, i64 0, i64 0
  %12 = load %struct.student*, %struct.student** %3, align 8
  %13 = getelementptr inbounds %struct.student, %struct.student* %12, i32 0, i32 1
  %14 = getelementptr inbounds [50 x i8], [50 x i8]* %13, i64 0, i64 0
  %15 = load %struct.student*, %struct.student** %3, align 8
  %16 = getelementptr inbounds %struct.student, %struct.student* %15, i32 0, i32 2
  %17 = load i8, i8* %16, align 4
  %18 = sext i8 %17 to i32
  %19 = load %struct.student*, %struct.student** %3, align 8
  %20 = getelementptr inbounds %struct.student, %struct.student* %19, i32 0, i32 3
  %21 = load i32, i32* %20, align 8
  %22 = load %struct.student*, %struct.student** %3, align 8
  %23 = getelementptr inbounds %struct.student, %struct.student* %22, i32 0, i32 4
  %24 = getelementptr inbounds [50 x i8], [50 x i8]* %23, i64 0, i64 0
  %25 = load %struct.student*, %struct.student** %3, align 8
  %26 = getelementptr inbounds %struct.student, %struct.student* %25, i32 0, i32 5
  %27 = getelementptr inbounds [50 x i8], [50 x i8]* %26, i64 0, i64 0
  %28 = call i32 (i8*, ...) @printf(i8* getelementptr inbounds ([19 x i8], [19 x i8]* @.str.5, i64 0, i64 0), i8* %11, i8* %14, i32 %18, i32 %21, i8* %24, i8* %27)
  %29 = load %struct.student*, %struct.student** %3, align 8
  %30 = getelementptr inbounds %struct.student, %struct.student* %29, i32 0, i32 6
  %31 = load %struct.student*, %struct.student** %30, align 8
  store %struct.student* %31, %struct.student** %3, align 8
  br label %32

32:                                               ; preds = %8
  %33 = load %struct.student*, %struct.student** %3, align 8
  %34 = icmp ne %struct.student* %33, null
  br i1 %34, label %8, label %35

35:                                               ; preds = %32
  br label %36

36:                                               ; preds = %35, %1
  ret void
}

; Function Attrs: noinline nounwind uwtable
define dso_local i32 @main() #0 {
  %1 = alloca i32, align 4
  %2 = alloca %struct.student*, align 8
  store i32 0, i32* %1, align 4
  %3 = call %struct.student* @Create()
  store %struct.student* %3, %struct.student** %2, align 8
  %4 = load %struct.student*, %struct.student** %2, align 8
  call void @Print(%struct.student* %4)
  ret i32 0
}


!llvm.module.flags = !{!0}
!llvm.ident = !{!1}

!0 = !{i32 1, !"wchar_size", i32 4}
!1 = !{!"clang version 10.0.0-4ubuntu1 "}
