; ModuleID = 'source-C-CXX/30/25.c'
source_filename = "source-C-CXX/30/25.c"
target datalayout = "e-m:e-p270:32:32-p271:32:32-p272:64:64-i64:64-f80:128-n8:16:32:64-S128"
target triple = "x86_64-pc-linux-gnu"

%struct.student = type { [50 x i8], [50 x i8], i8, i32, [50 x i8], [50 x i8], %struct.student* }

@n = dso_local local_unnamed_addr global i32 0, align 4
@.str.1 = private unnamed_addr constant [18 x i8] c"%s %s %c %d %s %s\00", align 1
@.str.2 = private unnamed_addr constant [3 x i8] c"%s\00", align 1
@.str.3 = private unnamed_addr constant [4 x i8] c"end\00", align 1
@.str.4 = private unnamed_addr constant [15 x i8] c"%s %c %d %s %s\00", align 1
@.str.5 = private unnamed_addr constant [19 x i8] c"%s %s %c %d %s %s\0A\00", align 1
@str = private unnamed_addr constant [45 x i8] c"\0ACann't create it, try it again in a moment!\00", align 1

; Function Attrs: nounwind sspstrong uwtable
define dso_local %struct.student* @Create() local_unnamed_addr #0 {
  store i32 0, i32* @n, align 4, !tbaa !5
  %1 = tail call noalias align 16 dereferenceable_or_null(100) i8* @malloc(i64 100) #7
  %2 = bitcast i8* %1 to %struct.student*
  %3 = icmp eq i8* %1, null
  br i1 %3, label %4, label %6

4:                                                ; preds = %0
  %5 = tail call i32 @puts(i8* nonnull dereferenceable(1) getelementptr inbounds ([45 x i8], [45 x i8]* @str, i64 0, i64 0))
  br label %48

6:                                                ; preds = %0
  %7 = getelementptr inbounds %struct.student, %struct.student* %2, i64 0, i32 0, i64 0
  %8 = getelementptr inbounds %struct.student, %struct.student* %2, i64 0, i32 1, i64 0
  %9 = getelementptr inbounds %struct.student, %struct.student* %2, i64 0, i32 2
  %10 = getelementptr inbounds %struct.student, %struct.student* %2, i64 0, i32 3
  %11 = getelementptr inbounds %struct.student, %struct.student* %2, i64 0, i32 4, i64 0
  %12 = getelementptr inbounds %struct.student, %struct.student* %2, i64 0, i32 5, i64 0
  %13 = tail call i32 (i8*, ...) @__isoc99_scanf(i8* getelementptr inbounds ([18 x i8], [18 x i8]* @.str.1, i64 0, i64 0), i8* nonnull %7, i8* nonnull %8, i8* nonnull %9, i32* nonnull %10, i8* nonnull %11, i8* nonnull %12)
  %14 = load i32, i32* @n, align 4, !tbaa !5
  %15 = add nsw i32 %14, 1
  store i32 %15, i32* @n, align 4, !tbaa !5
  %16 = icmp eq i32 %14, 0
  %17 = select i1 %16, %struct.student* null, %struct.student* %2
  %18 = getelementptr inbounds %struct.student, %struct.student* %2, i64 0, i32 6
  store %struct.student* %17, %struct.student** %18, align 16
  %19 = tail call noalias align 16 dereferenceable_or_null(100) i8* @malloc(i64 100) #7
  %20 = bitcast i8* %19 to %struct.student*
  %21 = getelementptr inbounds %struct.student, %struct.student* %20, i64 0, i32 0, i64 0
  %22 = tail call i32 (i8*, ...) @__isoc99_scanf(i8* getelementptr inbounds ([3 x i8], [3 x i8]* @.str.2, i64 0, i64 0), i8* %21)
  %23 = tail call i32 @strcmp(i8* noundef nonnull dereferenceable(1) %21, i8* noundef nonnull dereferenceable(4) getelementptr inbounds ([4 x i8], [4 x i8]* @.str.3, i64 0, i64 0)) #8
  %24 = icmp eq i32 %23, 0
  br i1 %24, label %25, label %28

25:                                               ; preds = %28, %6
  %26 = phi %struct.student* [ %2, %6 ], [ %29, %28 ]
  %27 = phi i8* [ %19, %6 ], [ %42, %28 ]
  tail call void @free(i8* %27) #7
  br label %48

28:                                               ; preds = %6, %28
  %29 = phi %struct.student* [ %43, %28 ], [ %20, %6 ]
  %30 = phi %struct.student* [ %29, %28 ], [ %2, %6 ]
  %31 = getelementptr inbounds %struct.student, %struct.student* %29, i64 0, i32 1, i64 0
  %32 = getelementptr inbounds %struct.student, %struct.student* %29, i64 0, i32 2
  %33 = getelementptr inbounds %struct.student, %struct.student* %29, i64 0, i32 3
  %34 = getelementptr inbounds %struct.student, %struct.student* %29, i64 0, i32 4, i64 0
  %35 = getelementptr inbounds %struct.student, %struct.student* %29, i64 0, i32 5, i64 0
  %36 = tail call i32 (i8*, ...) @__isoc99_scanf(i8* getelementptr inbounds ([15 x i8], [15 x i8]* @.str.4, i64 0, i64 0), i8* nonnull %31, i8* nonnull %32, i32* nonnull %33, i8* nonnull %34, i8* nonnull %35)
  %37 = load i32, i32* @n, align 4, !tbaa !5
  %38 = add nsw i32 %37, 1
  store i32 %38, i32* @n, align 4, !tbaa !5
  %39 = icmp eq i32 %37, 0
  %40 = select i1 %39, %struct.student* null, %struct.student* %30
  %41 = getelementptr inbounds %struct.student, %struct.student* %29, i64 0, i32 6
  store %struct.student* %40, %struct.student** %41, align 8
  %42 = tail call noalias align 16 dereferenceable_or_null(100) i8* @malloc(i64 100) #7
  %43 = bitcast i8* %42 to %struct.student*
  %44 = getelementptr inbounds %struct.student, %struct.student* %43, i64 0, i32 0, i64 0
  %45 = tail call i32 (i8*, ...) @__isoc99_scanf(i8* getelementptr inbounds ([3 x i8], [3 x i8]* @.str.2, i64 0, i64 0), i8* %44)
  %46 = tail call i32 @strcmp(i8* noundef nonnull dereferenceable(1) %44, i8* noundef nonnull dereferenceable(4) getelementptr inbounds ([4 x i8], [4 x i8]* @.str.3, i64 0, i64 0)) #8
  %47 = icmp eq i32 %46, 0
  br i1 %47, label %25, label %28

48:                                               ; preds = %25, %4
  %49 = phi %struct.student* [ null, %4 ], [ %26, %25 ]
  ret %struct.student* %49
}

; Function Attrs: inaccessiblememonly mustprogress nofree nounwind willreturn
declare noalias noundef align 16 i8* @malloc(i64 noundef) local_unnamed_addr #1

; Function Attrs: nofree nounwind
declare noundef i32 @printf(i8* nocapture noundef readonly, ...) local_unnamed_addr #2

; Function Attrs: nofree nounwind
declare noundef i32 @__isoc99_scanf(i8* nocapture noundef readonly, ...) local_unnamed_addr #2

; Function Attrs: argmemonly mustprogress nofree nounwind readonly willreturn
declare i32 @strcmp(i8* nocapture, i8* nocapture) local_unnamed_addr #3

; Function Attrs: inaccessiblemem_or_argmemonly mustprogress nounwind willreturn
declare void @free(i8* nocapture noundef) local_unnamed_addr #4

; Function Attrs: nofree nounwind sspstrong uwtable
define dso_local void @Print(%struct.student* %0) local_unnamed_addr #5 {
  %2 = icmp eq %struct.student* %0, null
  br i1 %2, label %18, label %3

3:                                                ; preds = %1, %3
  %4 = phi %struct.student* [ %16, %3 ], [ %0, %1 ]
  %5 = getelementptr inbounds %struct.student, %struct.student* %4, i64 0, i32 0, i64 0
  %6 = getelementptr inbounds %struct.student, %struct.student* %4, i64 0, i32 1, i64 0
  %7 = getelementptr inbounds %struct.student, %struct.student* %4, i64 0, i32 2
  %8 = load i8, i8* %7, align 4, !tbaa !9
  %9 = sext i8 %8 to i32
  %10 = getelementptr inbounds %struct.student, %struct.student* %4, i64 0, i32 3
  %11 = load i32, i32* %10, align 8, !tbaa !12
  %12 = getelementptr inbounds %struct.student, %struct.student* %4, i64 0, i32 4, i64 0
  %13 = getelementptr inbounds %struct.student, %struct.student* %4, i64 0, i32 5, i64 0
  %14 = tail call i32 (i8*, ...) @printf(i8* nonnull dereferenceable(1) getelementptr inbounds ([19 x i8], [19 x i8]* @.str.5, i64 0, i64 0), i8* %5, i8* nonnull %6, i32 %9, i32 %11, i8* nonnull %12, i8* nonnull %13)
  %15 = getelementptr inbounds %struct.student, %struct.student* %4, i64 0, i32 6
  %16 = load %struct.student*, %struct.student** %15, align 8, !tbaa !13
  %17 = icmp eq %struct.student* %16, null
  br i1 %17, label %18, label %3, !llvm.loop !14

18:                                               ; preds = %3, %1
  ret void
}

; Function Attrs: nounwind sspstrong uwtable
define dso_local i32 @main() local_unnamed_addr #0 {
  %1 = tail call %struct.student* @Create()
  %2 = icmp eq %struct.student* %1, null
  br i1 %2, label %18, label %3

3:                                                ; preds = %0, %3
  %4 = phi %struct.student* [ %16, %3 ], [ %1, %0 ]
  %5 = getelementptr inbounds %struct.student, %struct.student* %4, i64 0, i32 0, i64 0
  %6 = getelementptr inbounds %struct.student, %struct.student* %4, i64 0, i32 1, i64 0
  %7 = getelementptr inbounds %struct.student, %struct.student* %4, i64 0, i32 2
  %8 = load i8, i8* %7, align 4, !tbaa !9
  %9 = sext i8 %8 to i32
  %10 = getelementptr inbounds %struct.student, %struct.student* %4, i64 0, i32 3
  %11 = load i32, i32* %10, align 8, !tbaa !12
  %12 = getelementptr inbounds %struct.student, %struct.student* %4, i64 0, i32 4, i64 0
  %13 = getelementptr inbounds %struct.student, %struct.student* %4, i64 0, i32 5, i64 0
  %14 = tail call i32 (i8*, ...) @printf(i8* nonnull dereferenceable(1) getelementptr inbounds ([19 x i8], [19 x i8]* @.str.5, i64 0, i64 0), i8* %5, i8* nonnull %6, i32 %9, i32 %11, i8* nonnull %12, i8* nonnull %13) #7
  %15 = getelementptr inbounds %struct.student, %struct.student* %4, i64 0, i32 6
  %16 = load %struct.student*, %struct.student** %15, align 8, !tbaa !13
  %17 = icmp eq %struct.student* %16, null
  br i1 %17, label %18, label %3, !llvm.loop !14

18:                                               ; preds = %3, %0
  ret i32 0
}

; Function Attrs: nofree nounwind
declare noundef i32 @puts(i8* nocapture noundef readonly) local_unnamed_addr #6


!llvm.module.flags = !{!0, !1, !2, !3}
!llvm.ident = !{!4}

!0 = !{i32 1, !"wchar_size", i32 4}
!1 = !{i32 7, !"PIC Level", i32 2}
!2 = !{i32 7, !"PIE Level", i32 2}
!3 = !{i32 7, !"uwtable", i32 1}
!4 = !{!"clang version 13.0.0"}
!5 = !{!6, !6, i64 0}
!6 = !{!"int", !7, i64 0}
!7 = !{!"omnipotent char", !8, i64 0}
!8 = !{!"Simple C/C++ TBAA"}
!9 = !{!10, !7, i64 100}
!10 = !{!"student", !7, i64 0, !7, i64 50, !7, i64 100, !6, i64 104, !7, i64 108, !7, i64 158, !11, i64 208}
!11 = !{!"any pointer", !7, i64 0}
!12 = !{!10, !6, i64 104}
!13 = !{!10, !11, i64 208}
!14 = distinct !{!14, !15}
!15 = !{!"llvm.loop.mustprogress"}
